; Function Attrs: mustprogress uwtable
define void @_ZN19OpenColorIO_v2_5dev6Config20clearEnvironmentVarsEv(ptr noundef nonnull readonly align 8 captures(none) dereferenceable(8) %0) local_unnamed_addr #4 align 2 personality ptr @__gxx_personality_v0 {
  %2 = load ptr, ptr %0, align 8, !tbaa !34
  %3 = getelementptr inbounds nuw i8, ptr %2, i64 8
  %4 = getelementptr inbounds nuw i8, ptr %2, i64 24
  %5 = load ptr, ptr %4, align 8, !tbaa !72
  invoke void @_ZNSt8_Rb_treeINSt7__cxx1112basic_stringIcSt11char_traitsIcESaIcEEESt4pairIKS5_S5_ESt10_Select1stIS8_ESt4lessIS5_ESaIS8_EE8_M_eraseEPSt13_Rb_tree_nodeIS8_E(ptr noundef nonnull align 8 dereferenceable(48) %3, ptr noundef %5)
          to label %_ZNSt3mapINSt7__cxx1112basic_stringIcSt11char_traitsIcESaIcEEES5_St4lessIS5_ESaISt4pairIKS5_S5_EEE5clearEv.exit unwind label %6

6:                                                ; preds = %1
  %7 = landingpad { ptr, i32 }
          catch ptr null
  %8 = extractvalue { ptr, i32 } %7, 0
  tail call void @__clang_call_terminate(ptr %8) #38
  unreachable

_ZNSt3mapINSt7__cxx1112basic_stringIcSt11char_traitsIcESaIcEEES5_St4lessIS5_ESaISt4pairIKS5_S5_EEE5clearEv.exit: ; preds = %1
  %9 = getelementptr inbounds nuw i8, ptr %2, i64 16
  store ptr null, ptr %4, align 8, !tbaa !72
  %10 = getelementptr inbounds nuw i8, ptr %2, i64 32
  store ptr %9, ptr %10, align 8, !tbaa !77
  %11 = getelementptr inbounds nuw i8, ptr %2, i64 40
  store ptr %9, ptr %11, align 8, !tbaa !78
  %12 = getelementptr inbounds nuw i8, ptr %2, i64 48
  store i64 0, ptr %12, align 8, !tbaa !79
  %13 = load ptr, ptr %0, align 8, !tbaa !34
  %14 = getelementptr inbounds nuw i8, ptr %13, i64 56
  %15 = load ptr, ptr %14, align 8, !tbaa !235
  tail call void @_ZN19OpenColorIO_v2_5dev7Context15clearStringVarsEv(ptr noundef nonnull align 8 dereferenceable(8) %15)
  %16 = load ptr, ptr %0, align 8, !tbaa !34
  %17 = getelementptr inbounds nuw i8, ptr %16, i64 872
  %18 = tail call noundef i32 @pthread_mutex_lock(ptr noundef nonnull align 8 dereferenceable(40) %17) #34
  %.not.i.i = icmp eq i32 %18, 0
  br i1 %.not.i.i, label %_ZNSt10lock_guardISt5mutexEC2ERS0_.exit, label %19

19:                                               ; preds = %_ZNSt3mapINSt7__cxx1112basic_stringIcSt11char_traitsIcESaIcEEES5_St4lessIS5_ESaISt4pairIKS5_S5_EEE5clearEv.exit
  tail call void @_ZSt20__throw_system_errori(i32 noundef %18) #35
  unreachable

_ZNSt10lock_guardISt5mutexEC2ERS0_.exit:          ; preds = %_ZNSt3mapINSt7__cxx1112basic_stringIcSt11char_traitsIcESaIcEEES5_St4lessIS5_ESaISt4pairIKS5_S5_EEE5clearEv.exit
  %20 = load ptr, ptr %0, align 8, !tbaa !34
  invoke void @_ZN19OpenColorIO_v2_5dev6Config4Impl13resetCacheIDsEv(ptr noundef nonnull align 8 dereferenceable(1120) %20)
          to label %21 unwind label %23

21:                                               ; preds = %_ZNSt10lock_guardISt5mutexEC2ERS0_.exit
  %22 = tail call noundef i32 @pthread_mutex_unlock(ptr noundef nonnull align 8 dereferenceable(40) %17) #34
  ret void

23:                                               ; preds = %_ZNSt10lock_guardISt5mutexEC2ERS0_.exit
  %24 = landingpad { ptr, i32 }
          cleanup
  %25 = tail call noundef i32 @pthread_mutex_unlock(ptr noundef nonnull align 8 dereferenceable(40) %17) #34
  resume { ptr, i32 } %24
}